target datalayout = "e-m:e-p270:32:32-p271:32:32-p272:64:64-i64:64-i128:128-f80:128-n8:16:32:64-S128"
target triple = "x86_64-pc-linux-gnu"

@.str.21 = private unnamed_addr constant [5 x i8] c"%02d\00", align 1
@.str.22 = private unnamed_addr constant [3 x i8] c"%d\00", align 1
@.str.23 = private unnamed_addr constant [10 x i8] c"%02d.%0*d\00", align 1
@.str.24 = private unnamed_addr constant [8 x i8] c"%d.%0*d\00", align 1

; Function Attrs: nounwind uwtable
define internal void @AppendSeconds(ptr noundef %0, i32 noundef %1, i32 noundef %2, i32 noundef %3, i1 noundef zeroext %4) #0 {
  %6 = alloca ptr, align 8
  %7 = alloca i32, align 4
  %8 = alloca i32, align 4
  %9 = alloca i32, align 4
  %10 = alloca i8, align 1
  store ptr %0, ptr %6, align 8
  store i32 %1, ptr %7, align 4
  store i32 %2, ptr %8, align 4
  store i32 %3, ptr %9, align 4
  %11 = zext i1 %4 to i8
  store i8 %11, ptr %10, align 1
  %12 = load i32, ptr %8, align 4
  %13 = icmp eq i32 %12, 0
  br i1 %13, label %14, label %28

14:                                               ; preds = %5
  %15 = load i8, ptr %10, align 1, !range !6, !noundef !7
  %16 = trunc i8 %15 to i1
  br i1 %16, label %17, label %22

17:                                               ; preds = %14
  %18 = load ptr, ptr %6, align 8
  %19 = load i32, ptr %7, align 4
  %20 = call i32 @llvm.abs.i32(i32 %19, i1 false)
  %21 = call i32 (ptr, ptr, ...) @pg_sprintf(ptr noundef %18, ptr noundef @.str.21, i32 noundef %20)
  br label %27

22:                                               ; preds = %14
  %23 = load ptr, ptr %6, align 8
  %24 = load i32, ptr %7, align 4
  %25 = call i32 @llvm.abs.i32(i32 %24, i1 false)
  %26 = call i32 (ptr, ptr, ...) @pg_sprintf(ptr noundef %23, ptr noundef @.str.22, i32 noundef %25)
  br label %27

27:                                               ; preds = %22, %17
  br label %49

28:                                               ; preds = %5
  %29 = load i8, ptr %10, align 1, !range !6, !noundef !7
  %30 = trunc i8 %29 to i1
  br i1 %30, label %31, label %39

31:                                               ; preds = %28
  %32 = load ptr, ptr %6, align 8
  %33 = load i32, ptr %7, align 4
  %34 = call i32 @llvm.abs.i32(i32 %33, i1 false)
  %35 = load i32, ptr %9, align 4
  %36 = load i32, ptr %8, align 4
  %37 = call i32 @llvm.abs.i32(i32 %36, i1 false)
  %38 = call i32 (ptr, ptr, ...) @pg_sprintf(ptr noundef %32, ptr noundef @.str.23, i32 noundef %34, i32 noundef %35, i32 noundef %37)
  br label %47

39:                                               ; preds = %28
  %40 = load ptr, ptr %6, align 8
  %41 = load i32, ptr %7, align 4
  %42 = call i32 @llvm.abs.i32(i32 %41, i1 false)
  %43 = load i32, ptr %9, align 4
  %44 = load i32, ptr %8, align 4
  %45 = call i32 @llvm.abs.i32(i32 %44, i1 false)
  %46 = call i32 (ptr, ptr, ...) @pg_sprintf(ptr noundef %40, ptr noundef @.str.24, i32 noundef %42, i32 noundef %43, i32 noundef %45)
  br label %47

47:                                               ; preds = %39, %31
  %48 = load ptr, ptr %6, align 8
  call void @TrimTrailingZeros(ptr noundef %48)
  br label %49

49:                                               ; preds = %47, %27
  ret void
}