; Function Attrs: nounwind uwtable
define internal fastcc void @AppendSeconds(ptr noundef %0, i32 noundef %1, i32 noundef %2, i1 noundef zeroext %3) unnamed_addr #0 {
  %5 = icmp eq i32 %2, 0
  %6 = tail call i32 @llvm.abs.i32(i32 %1, i1 false)
  br i1 %5, label %7, label %12

7:                                                ; preds = %4
  br i1 %3, label %8, label %10

8:                                                ; preds = %7
  %9 = tail call i32 (ptr, ptr, ...) @pg_sprintf(ptr noundef %0, ptr noundef nonnull @.str.21, i32 noundef %6) #13
  br label %15

10:                                               ; preds = %7
  %11 = tail call i32 (ptr, ptr, ...) @pg_sprintf(ptr noundef %0, ptr noundef nonnull @.str.22, i32 noundef %6) #13
  br label %15

12:                                               ; preds = %4
  %13 = tail call i32 @llvm.abs.i32(i32 %2, i1 false)
  %.str.23..str.24 = select i1 %3, ptr @.str.23, ptr @.str.24
  %14 = tail call i32 (ptr, ptr, ...) @pg_sprintf(ptr noundef %0, ptr noundef nonnull %.str.23..str.24, i32 noundef %6, i32 noundef 6, i32 noundef %13) #13
  tail call void @TrimTrailingZeros(ptr noundef %0) #13
  br label %15

15:                                               ; preds = %8, %10, %12
  ret void
}